; Function Attrs: mustprogress uwtable
define void @_ZNK5Ipopt14DenseGenMatrix19CholeskySolveVectorERNS_11DenseVectorE(ptr noundef nonnull readonly align 8 captures(none) dereferenceable(104) %0, ptr noundef nonnull align 8 dereferenceable(248) %1) local_unnamed_addr #2 align 2 {
  %3 = getelementptr inbounds nuw i8, ptr %0, i64 56
  %4 = load ptr, ptr %3, align 8, !tbaa !6
  %5 = getelementptr inbounds nuw i8, ptr %4, i64 12
  %6 = load i32, ptr %5, align 4, !tbaa !33
  %7 = getelementptr inbounds nuw i8, ptr %0, i64 80
  %8 = load ptr, ptr %7, align 8, !tbaa !34
  %9 = getelementptr inbounds nuw i8, ptr %1, i64 232
  %10 = load i8, ptr %9, align 8, !tbaa !102, !range !103, !noundef !104
  %11 = trunc nuw i8 %10 to i1
  br i1 %11, label %12, label %17

12:                                               ; preds = %2
  %13 = getelementptr inbounds nuw i8, ptr %1, i64 233
  %14 = load i8, ptr %13, align 1, !tbaa !105, !range !103, !noundef !104
  %15 = trunc nuw i8 %14 to i1
  br i1 %15, label %16, label %17

16:                                               ; preds = %12
  tail call void @_ZN5Ipopt11DenseVector22set_values_from_scalarEv(ptr noundef nonnull align 8 dereferenceable(248) %1)
  br label %17

17:                                               ; preds = %16, %12, %2
  tail call void @_ZN5Ipopt12TaggedObject13ObjectChangedEv(ptr noundef nonnull align 8 dereferenceable(248) %1)
  store i8 1, ptr %9, align 8, !tbaa !102
  %18 = getelementptr inbounds nuw i8, ptr %1, i64 233
  store i8 0, ptr %18, align 1, !tbaa !105
  %19 = getelementptr inbounds nuw i8, ptr %1, i64 216
  %20 = load ptr, ptr %19, align 8, !tbaa !38
  %21 = icmp eq ptr %20, null
  br i1 %21, label %22, label %_ZN5Ipopt11DenseVector6ValuesEv.exit

22:                                               ; preds = %17
  %23 = getelementptr inbounds nuw i8, ptr %1, i64 208
  %24 = load ptr, ptr %23, align 8, !tbaa !106
  %25 = getelementptr inbounds nuw i8, ptr %24, i64 12
  %26 = load i32, ptr %25, align 4, !tbaa !107
  %27 = icmp sgt i32 %26, 0
  br i1 %27, label %28, label %_ZNK5Ipopt16DenseVectorSpace23AllocateInternalStorageEv.exit.i.i

28:                                               ; preds = %22
  %29 = zext nneg i32 %26 to i64
  %30 = shl nuw nsw i64 %29, 3
  %31 = tail call noalias noundef nonnull ptr @_Znam(i64 noundef %30) #21
  br label %_ZNK5Ipopt16DenseVectorSpace23AllocateInternalStorageEv.exit.i.i

_ZNK5Ipopt16DenseVectorSpace23AllocateInternalStorageEv.exit.i.i: ; preds = %28, %22
  %.0.i.i.i = phi ptr [ %31, %28 ], [ null, %22 ]
  store ptr %.0.i.i.i, ptr %19, align 8, !tbaa !38
  br label %_ZN5Ipopt11DenseVector6ValuesEv.exit

_ZN5Ipopt11DenseVector6ValuesEv.exit:             ; preds = %17, %_ZNK5Ipopt16DenseVectorSpace23AllocateInternalStorageEv.exit.i.i
  %32 = phi ptr [ %20, %17 ], [ %.0.i.i.i, %_ZNK5Ipopt16DenseVectorSpace23AllocateInternalStorageEv.exit.i.i ]
  %33 = getelementptr inbounds nuw i8, ptr %1, i64 56
  %34 = load ptr, ptr %33, align 8, !tbaa !111
  %35 = getelementptr inbounds nuw i8, ptr %34, i64 12
  %36 = load i32, ptr %35, align 4, !tbaa !107
  tail call void @_ZN5Ipopt13IpLapackPotrsEiiPKdiPdi(i32 noundef %6, i32 noundef 1, ptr noundef %8, i32 noundef %6, ptr noundef %32, i32 noundef %36)
  ret void
}